target datalayout = "e-m:e-p270:32:32-p271:32:32-p272:64:64-i64:64-i128:128-f80:128-n8:16:32:64-S128"
target triple = "x86_64-pc-linux-gnu"

%struct.evp_test_st = type { %struct.stanza_st, ptr, i32, ptr, ptr, ptr, ptr, ptr, ptr, i32 }
%struct.stanza_st = type { ptr, ptr, i32, i32, i32, i32, i32, i32, [150 x %struct.pair_st], ptr, [32768 x i8] }
%struct.pair_st = type { ptr, ptr }
%struct.pkey_kdf_data_st = type { ptr, ptr, i64 }

@propquery = internal global ptr null, align 8
@libctx = internal global ptr null, align 8
@.str.29 = private unnamed_addr constant [27 x i8] c"../openssl/test/evp_test.c\00", align 1
@.str.134 = private unnamed_addr constant [27 x i8] c"skipping, '%s' is disabled\00", align 1
@.str.288 = private unnamed_addr constant [39 x i8] c"kdata = OPENSSL_zalloc(sizeof(*kdata))\00", align 1

; Function Attrs: nounwind uwtable
define internal i32 @is_kdf_disabled(ptr noundef %0) #0 {
  %2 = alloca ptr, align 8
  store ptr %0, ptr %2, align 8, !tbaa !4
  ret i32 0
}

; Function Attrs: nounwind uwtable
define internal i32 @pkey_kdf_test_init(ptr noundef %0, ptr noundef %1) #0 {
  %3 = alloca i32, align 4
  %4 = alloca ptr, align 8
  %5 = alloca ptr, align 8
  %6 = alloca ptr, align 8
  %7 = alloca i32, align 4
  store ptr %0, ptr %4, align 8, !tbaa !15
  store ptr %1, ptr %5, align 8, !tbaa !4
  call void @llvm.lifetime.start.p0(i64 8, ptr %6) #10
  store ptr null, ptr %6, align 8, !tbaa !256
  %8 = load ptr, ptr %5, align 8, !tbaa !4
  %9 = call i32 @is_kdf_disabled(ptr noundef %8)
  %10 = icmp ne i32 %9, 0
  br i1 %10, label %11, label %15

11:                                               ; preds = %2
  %12 = load ptr, ptr %5, align 8, !tbaa !4
  call void (ptr, i32, ptr, ...) @test_info(ptr noundef @.str.29, i32 noundef 3949, ptr noundef @.str.134, ptr noundef %12)
  %13 = load ptr, ptr %4, align 8, !tbaa !15
  %14 = getelementptr inbounds nuw %struct.evp_test_st, ptr %13, i32 0, i32 2
  store i32 1, ptr %14, align 8, !tbaa !24
  store i32 1, ptr %3, align 4
  store i32 1, ptr %7, align 4
  br label %47

15:                                               ; preds = %2
  %16 = call noalias ptr @CRYPTO_zalloc(i64 noundef 24, ptr noundef @.str.29, i32 noundef 3954)
  store ptr %16, ptr %6, align 8, !tbaa !256
  %17 = call i32 @test_ptr(ptr noundef @.str.29, i32 noundef 3954, ptr noundef @.str.288, ptr noundef %16)
  %18 = icmp ne i32 %17, 0
  br i1 %18, label %20, label %19

19:                                               ; preds = %15
  store i32 0, ptr %3, align 4
  store i32 1, ptr %7, align 4
  br label %47

20:                                               ; preds = %15
  %21 = load ptr, ptr @libctx, align 8, !tbaa !17
  %22 = load ptr, ptr %5, align 8, !tbaa !4
  %23 = load ptr, ptr @propquery, align 8, !tbaa !4
  %24 = call ptr @EVP_PKEY_CTX_new_from_name(ptr noundef %21, ptr noundef %22, ptr noundef %23)
  %25 = load ptr, ptr %6, align 8, !tbaa !256
  %26 = getelementptr inbounds nuw %struct.pkey_kdf_data_st, ptr %25, i32 0, i32 0
  store ptr %24, ptr %26, align 8, !tbaa !258
  %27 = load ptr, ptr %6, align 8, !tbaa !256
  %28 = getelementptr inbounds nuw %struct.pkey_kdf_data_st, ptr %27, i32 0, i32 0
  %29 = load ptr, ptr %28, align 8, !tbaa !258
  %30 = icmp eq ptr %29, null
  br i1 %30, label %37, label %31

31:                                               ; preds = %20
  %32 = load ptr, ptr %6, align 8, !tbaa !256
  %33 = getelementptr inbounds nuw %struct.pkey_kdf_data_st, ptr %32, i32 0, i32 0
  %34 = load ptr, ptr %33, align 8, !tbaa !258
  %35 = call i32 @EVP_PKEY_derive_init(ptr noundef %34)
  %36 = icmp sle i32 %35, 0
  br i1 %36, label %37, label %38

37:                                               ; preds = %31, %20
  br label %42

38:                                               ; preds = %31
  %39 = load ptr, ptr %6, align 8, !tbaa !256
  %40 = load ptr, ptr %4, align 8, !tbaa !15
  %41 = getelementptr inbounds nuw %struct.evp_test_st, ptr %40, i32 0, i32 8
  store ptr %39, ptr %41, align 8, !tbaa !66
  store i32 1, ptr %3, align 4
  store i32 1, ptr %7, align 4
  br label %47

42:                                               ; preds = %37
  %43 = load ptr, ptr %6, align 8, !tbaa !256
  %44 = getelementptr inbounds nuw %struct.pkey_kdf_data_st, ptr %43, i32 0, i32 0
  %45 = load ptr, ptr %44, align 8, !tbaa !258
  call void @EVP_PKEY_CTX_free(ptr noundef %45)
  %46 = load ptr, ptr %6, align 8, !tbaa !256
  call void @CRYPTO_free(ptr noundef %46, ptr noundef @.str.29, i32 noundef 3966)
  store i32 0, ptr %3, align 4
  store i32 1, ptr %7, align 4
  br label %47

47:                                               ; preds = %42, %38, %19, %11
  call void @llvm.lifetime.end.p0(i64 8, ptr %6) #10
  %48 = load i32, ptr %3, align 4
  ret i32 %48
}