; Function Attrs: nounwind uwtable
define internal range(i32 0, 2) i32 @pkey_kdf_test_init(ptr noundef writeonly captures(none) %0, ptr noundef %1) #1 {
  %3 = tail call noalias ptr @CRYPTO_zalloc(i64 noundef 24, ptr noundef nonnull @.str.29, i32 noundef 3954) #10
  %4 = tail call i32 @test_ptr(ptr noundef nonnull @.str.29, i32 noundef 3954, ptr noundef nonnull @.str.288, ptr noundef %3) #10
  %.not = icmp eq i32 %4, 0
  br i1 %.not, label %17, label %5

5:                                                ; preds = %2
  %6 = load ptr, ptr @libctx, align 8, !tbaa !13
  %7 = load ptr, ptr @propquery, align 8, !tbaa !10
  %8 = tail call ptr @EVP_PKEY_CTX_new_from_name(ptr noundef %6, ptr noundef %1, ptr noundef %7) #10
  store ptr %8, ptr %3, align 8, !tbaa !207
  %9 = icmp eq ptr %8, null
  br i1 %9, label %15, label %10

10:                                               ; preds = %5
  %11 = tail call i32 @EVP_PKEY_derive_init(ptr noundef nonnull %8) #10
  %12 = icmp slt i32 %11, 1
  br i1 %12, label %._crit_edge, label %13

._crit_edge:                                      ; preds = %10
  %.pre = load ptr, ptr %3, align 8, !tbaa !207
  br label %15

13:                                               ; preds = %10
  %14 = getelementptr inbounds nuw i8, ptr %0, i64 35272
  store ptr %3, ptr %14, align 8, !tbaa !20
  br label %17

15:                                               ; preds = %._crit_edge, %5
  %16 = phi ptr [ %.pre, %._crit_edge ], [ null, %5 ]
  tail call void @EVP_PKEY_CTX_free(ptr noundef %16) #10
  tail call void @CRYPTO_free(ptr noundef nonnull %3, ptr noundef nonnull @.str.29, i32 noundef 3966) #10
  br label %17

17:                                               ; preds = %2, %15, %13
  %.0 = phi i32 [ 0, %15 ], [ 1, %13 ], [ 0, %2 ]
  ret i32 %.0
}